target datalayout = "e-m:e-p270:32:32-p271:32:32-p272:64:64-i64:64-i128:128-f80:128-n8:16:32:64-S128"
target triple = "x86_64-pc-linux-gnu"

%struct.nameData = type { [64 x i8] }
%struct.RelationData = type { %struct.RelFileLocator, ptr, i32, i32, i8, i8, i8, i8, i8, i32, i32, i32, i32, ptr, ptr, i32, %struct.LockInfoData, ptr, ptr, ptr, ptr, ptr, i8, ptr, ptr, ptr, ptr, ptr, ptr, i32, ptr, i8, ptr, ptr, i32, i8, i32, ptr, i8, ptr, ptr, ptr, ptr, ptr, ptr, ptr, i32, ptr, ptr, ptr, ptr, ptr, ptr, ptr, ptr, ptr, ptr, ptr, ptr, ptr, ptr, ptr, ptr, ptr, ptr, ptr, i32, i8, ptr }
%struct.RelFileLocator = type { i32, i32, i32 }
%struct.LockInfoData = type { %struct.LockRelId }
%struct.LockRelId = type { i32, i32 }
%struct.FormData_pg_class = type { i32, %struct.nameData, i32, i32, i32, i32, i32, i32, i32, i32, float, i32, i32, i8, i8, i8, i8, i16, i16, i8, i8, i8, i8, i8, i8, i8, i8, i32, i32, i32 }
%struct.ItemPointerData = type { %struct.BlockIdData, i16 }
%struct.BlockIdData = type { i16, i16 }
%struct.HeapTupleData = type { i32, %struct.ItemPointerData, i32, ptr }
%struct.ScanKeyData = type { i32, i16, i16, i32, i32, %struct.FmgrInfo, i64 }
%struct.FmgrInfo = type { ptr, i32, i16, i8, i8, i8, ptr, ptr, ptr }
%struct.HeapTupleHeaderData = type { %union.anon.0, %struct.ItemPointerData, i16, i16, i8, [0 x i8] }
%union.anon.0 = type { %struct.HeapTupleFields }
%struct.HeapTupleFields = type { i32, i32, %union.anon.1 }
%union.anon.1 = type { i32 }

@.str.1 = private unnamed_addr constant [7 x i8] c"heap.c\00", align 1
@.str.21 = private unnamed_addr constant [36 x i8] c"cache lookup failed for relation %u\00", align 1
@__func__.heap_drop_with_catalog = private unnamed_addr constant [23 x i8] c"heap_drop_with_catalog\00", align 1
@.str.24 = private unnamed_addr constant [11 x i8] c"DROP TABLE\00", align 1
@.str.25 = private unnamed_addr constant [41 x i8] c"cache lookup failed for foreign table %u\00", align 1

; Function Attrs: nounwind uwtable
define internal void @RelationRemoveInheritance(i32 noundef %0) #0 {
  %2 = alloca i32, align 4
  %3 = alloca ptr, align 8
  %4 = alloca ptr, align 8
  %5 = alloca %struct.ScanKeyData, align 8
  %6 = alloca ptr, align 8
  store i32 %0, ptr %2, align 4
  call void @llvm.lifetime.start.p0(i64 8, ptr %3) #10
  call void @llvm.lifetime.start.p0(i64 8, ptr %4) #10
  call void @llvm.lifetime.start.p0(i64 72, ptr %5) #10
  call void @llvm.lifetime.start.p0(i64 8, ptr %6) #10
  %7 = call ptr @table_open(i32 noundef 2611, i32 noundef 3)
  store ptr %7, ptr %3, align 8
  %8 = load i32, ptr %2, align 4
  %9 = call i64 @ObjectIdGetDatum(i32 noundef %8)
  call void @ScanKeyInit(ptr noundef %5, i16 noundef signext 1, i16 noundef zeroext 3, i32 noundef 184, i64 noundef %9)
  %10 = load ptr, ptr %3, align 8
  %11 = call ptr @systable_beginscan(ptr noundef %10, i32 noundef 2680, i1 noundef zeroext true, ptr noundef null, i32 noundef 1, ptr noundef %5)
  store ptr %11, ptr %4, align 8
  br label %12

12:                                               ; preds = %16, %1
  %13 = load ptr, ptr %4, align 8
  %14 = call ptr @systable_getnext(ptr noundef %13)
  store ptr %14, ptr %6, align 8
  %15 = icmp ne ptr %14, null
  br i1 %15, label %16, label %20

16:                                               ; preds = %12
  %17 = load ptr, ptr %3, align 8
  %18 = load ptr, ptr %6, align 8
  %19 = getelementptr inbounds nuw %struct.HeapTupleData, ptr %18, i32 0, i32 1
  call void @CatalogTupleDelete(ptr noundef %17, ptr noundef %19)
  br label %12, !llvm.loop !21

20:                                               ; preds = %12
  %21 = load ptr, ptr %4, align 8
  call void @systable_endscan(ptr noundef %21)
  %22 = load ptr, ptr %3, align 8
  call void @table_close(ptr noundef %22, i32 noundef 3)
  call void @llvm.lifetime.end.p0(i64 8, ptr %6) #10
  call void @llvm.lifetime.end.p0(i64 72, ptr %5) #10
  call void @llvm.lifetime.end.p0(i64 8, ptr %4) #10
  call void @llvm.lifetime.end.p0(i64 8, ptr %3) #10
  ret void
}

; Function Attrs: inlinehint nounwind uwtable
define internal ptr @GETSTRUCT(ptr noundef %0) #5 {
  %2 = alloca ptr, align 8
  store ptr %0, ptr %2, align 8
  %3 = load ptr, ptr %2, align 8
  %4 = getelementptr inbounds nuw %struct.HeapTupleData, ptr %3, i32 0, i32 3
  %5 = load ptr, ptr %4, align 8
  %6 = load ptr, ptr %2, align 8
  %7 = getelementptr inbounds nuw %struct.HeapTupleData, ptr %6, i32 0, i32 3
  %8 = load ptr, ptr %7, align 8
  %9 = getelementptr inbounds nuw %struct.HeapTupleHeaderData, ptr %8, i32 0, i32 4
  %10 = load i8, ptr %9, align 2
  %11 = zext i8 %10 to i32
  %12 = sext i32 %11 to i64
  %13 = getelementptr inbounds i8, ptr %5, i64 %12
  ret ptr %13
}

; Function Attrs: inlinehint nounwind uwtable
define internal i64 @ObjectIdGetDatum(i32 noundef %0) #5 {
  %2 = alloca i32, align 4
  store i32 %0, ptr %2, align 4
  %3 = load i32, ptr %2, align 4
  %4 = zext i32 %3 to i64
  ret i64 %4
}

; Function Attrs: nounwind uwtable
define dso_local void @heap_drop_with_catalog(i32 noundef %0) #0 {
  %2 = alloca i32, align 4
  %3 = alloca ptr, align 8
  %4 = alloca ptr, align 8
  %5 = alloca i32, align 4
  %6 = alloca i32, align 4
  %7 = alloca ptr, align 8
  %8 = alloca ptr, align 8
  store i32 %0, ptr %2, align 4
  call void @llvm.lifetime.start.p0(i64 8, ptr %3) #10
  call void @llvm.lifetime.start.p0(i64 8, ptr %4) #10
  call void @llvm.lifetime.start.p0(i64 4, ptr %5) #10
  store i32 0, ptr %5, align 4
  call void @llvm.lifetime.start.p0(i64 4, ptr %6) #10
  store i32 0, ptr %6, align 4
  %9 = load i32, ptr %2, align 4
  %10 = call i64 @ObjectIdGetDatum(i32 noundef %9)
  %11 = call ptr @SearchSysCache1(i32 noundef 57, i64 noundef %10)
  store ptr %11, ptr %4, align 8
  %12 = load ptr, ptr %4, align 8
  %13 = icmp ne ptr %12, null
  br i1 %13, label %26, label %14

14:                                               ; preds = %1
  br label %15

15:                                               ; preds = %14
  br i1 true, label %16, label %18

16:                                               ; preds = %15
  %17 = call zeroext i1 @errstart_cold(i32 noundef 21, ptr noundef null) #9
  br i1 %17, label %20, label %23

18:                                               ; preds = %15
  %19 = call zeroext i1 @errstart(i32 noundef 21, ptr noundef null)
  br i1 %19, label %20, label %23

20:                                               ; preds = %18, %16
  %21 = load i32, ptr %2, align 4
  %22 = call i32 (ptr, ...) @errmsg_internal(ptr noundef @.str.21, i32 noundef %21)
  call void @errfinish(ptr noundef @.str.1, i32 noundef 1790, ptr noundef @__func__.heap_drop_with_catalog)
  br label %23

23:                                               ; preds = %20, %18, %16
  unreachable

24:                                               ; No predecessors!
  br label %25

25:                                               ; preds = %24
  br label %26

26:                                               ; preds = %25, %1
  %27 = load ptr, ptr %4, align 8
  %28 = call ptr @GETSTRUCT(ptr noundef %27)
  %29 = getelementptr inbounds nuw %struct.FormData_pg_class, ptr %28, i32 0, i32 26
  %30 = load i8, ptr %29, align 1, !range !6, !noundef !7
  %31 = trunc i8 %30 to i1
  br i1 %31, label %32, label %47

32:                                               ; preds = %26
  %33 = load i32, ptr %2, align 4
  %34 = call i32 @get_partition_parent(i32 noundef %33, i1 noundef zeroext true)
  store i32 %34, ptr %5, align 4
  %35 = load i32, ptr %5, align 4
  call void @LockRelationOid(i32 noundef %35, i32 noundef 8)
  %36 = load i32, ptr %5, align 4
  %37 = call i32 @get_default_partition_oid(i32 noundef %36)
  store i32 %37, ptr %6, align 4
  %38 = load i32, ptr %6, align 4
  %39 = icmp ne i32 %38, 0
  br i1 %39, label %40, label %46

40:                                               ; preds = %32
  %41 = load i32, ptr %2, align 4
  %42 = load i32, ptr %6, align 4
  %43 = icmp ne i32 %41, %42
  br i1 %43, label %44, label %46

44:                                               ; preds = %40
  %45 = load i32, ptr %6, align 4
  call void @LockRelationOid(i32 noundef %45, i32 noundef 8)
  br label %46

46:                                               ; preds = %44, %40, %32
  br label %47

47:                                               ; preds = %46, %26
  %48 = load ptr, ptr %4, align 8
  call void @ReleaseSysCache(ptr noundef %48)
  %49 = load i32, ptr %2, align 4
  %50 = call ptr @relation_open(i32 noundef %49, i32 noundef 8)
  store ptr %50, ptr %3, align 8
  %51 = load ptr, ptr %3, align 8
  call void @CheckTableNotInUse(ptr noundef %51, ptr noundef @.str.24)
  %52 = load ptr, ptr %3, align 8
  call void @CheckTableForSerializableConflictIn(ptr noundef %52)
  %53 = load ptr, ptr %3, align 8
  %54 = getelementptr inbounds nuw %struct.RelationData, ptr %53, i32 0, i32 13
  %55 = load ptr, ptr %54, align 8
  %56 = getelementptr inbounds nuw %struct.FormData_pg_class, ptr %55, i32 0, i32 16
  %57 = load i8, ptr %56, align 1
  %58 = sext i8 %57 to i32
  %59 = icmp eq i32 %58, 102
  br i1 %59, label %60, label %85

60:                                               ; preds = %47
  call void @llvm.lifetime.start.p0(i64 8, ptr %7) #10
  call void @llvm.lifetime.start.p0(i64 8, ptr %8) #10
  %61 = call ptr @table_open(i32 noundef 3118, i32 noundef 3)
  store ptr %61, ptr %7, align 8
  %62 = load i32, ptr %2, align 4
  %63 = call i64 @ObjectIdGetDatum(i32 noundef %62)
  %64 = call ptr @SearchSysCache1(i32 noundef 33, i64 noundef %63)
  store ptr %64, ptr %8, align 8
  %65 = load ptr, ptr %8, align 8
  %66 = icmp ne ptr %65, null
  br i1 %66, label %79, label %67

67:                                               ; preds = %60
  br label %68

68:                                               ; preds = %67
  br i1 true, label %69, label %71

69:                                               ; preds = %68
  %70 = call zeroext i1 @errstart_cold(i32 noundef 21, ptr noundef null) #9
  br i1 %70, label %73, label %76

71:                                               ; preds = %68
  %72 = call zeroext i1 @errstart(i32 noundef 21, ptr noundef null)
  br i1 %72, label %73, label %76

73:                                               ; preds = %71, %69
  %74 = load i32, ptr %2, align 4
  %75 = call i32 (ptr, ...) @errmsg_internal(ptr noundef @.str.25, i32 noundef %74)
  call void @errfinish(ptr noundef @.str.1, i32 noundef 1844, ptr noundef @__func__.heap_drop_with_catalog)
  br label %76

76:                                               ; preds = %73, %71, %69
  unreachable

77:                                               ; No predecessors!
  br label %78

78:                                               ; preds = %77
  br label %79

79:                                               ; preds = %78, %60
  %80 = load ptr, ptr %7, align 8
  %81 = load ptr, ptr %8, align 8
  %82 = getelementptr inbounds nuw %struct.HeapTupleData, ptr %81, i32 0, i32 1
  call void @CatalogTupleDelete(ptr noundef %80, ptr noundef %82)
  %83 = load ptr, ptr %8, align 8
  call void @ReleaseSysCache(ptr noundef %83)
  %84 = load ptr, ptr %7, align 8
  call void @table_close(ptr noundef %84, i32 noundef 3)
  call void @llvm.lifetime.end.p0(i64 8, ptr %8) #10
  call void @llvm.lifetime.end.p0(i64 8, ptr %7) #10
  br label %85

85:                                               ; preds = %79, %47
  %86 = load ptr, ptr %3, align 8
  %87 = getelementptr inbounds nuw %struct.RelationData, ptr %86, i32 0, i32 13
  %88 = load ptr, ptr %87, align 8
  %89 = getelementptr inbounds nuw %struct.FormData_pg_class, ptr %88, i32 0, i32 16
  %90 = load i8, ptr %89, align 1
  %91 = sext i8 %90 to i32
  %92 = icmp eq i32 %91, 112
  br i1 %92, label %93, label %95

93:                                               ; preds = %85
  %94 = load i32, ptr %2, align 4
  call void @RemovePartitionKeyByRelId(i32 noundef %94)
  br label %95

95:                                               ; preds = %93, %85
  %96 = load i32, ptr %2, align 4
  %97 = load i32, ptr %6, align 4
  %98 = icmp eq i32 %96, %97
  br i1 %98, label %99, label %101

99:                                               ; preds = %95
  %100 = load i32, ptr %5, align 4
  call void @update_default_partition_oid(i32 noundef %100, i32 noundef 0)
  br label %101

101:                                              ; preds = %99, %95
  %102 = load ptr, ptr %3, align 8
  %103 = getelementptr inbounds nuw %struct.RelationData, ptr %102, i32 0, i32 13
  %104 = load ptr, ptr %103, align 8
  %105 = getelementptr inbounds nuw %struct.FormData_pg_class, ptr %104, i32 0, i32 16
  %106 = load i8, ptr %105, align 1
  %107 = sext i8 %106 to i32
  %108 = icmp eq i32 %107, 114
  br i1 %108, label %141, label %109

109:                                              ; preds = %101
  %110 = load ptr, ptr %3, align 8
  %111 = getelementptr inbounds nuw %struct.RelationData, ptr %110, i32 0, i32 13
  %112 = load ptr, ptr %111, align 8
  %113 = getelementptr inbounds nuw %struct.FormData_pg_class, ptr %112, i32 0, i32 16
  %114 = load i8, ptr %113, align 1
  %115 = sext i8 %114 to i32
  %116 = icmp eq i32 %115, 105
  br i1 %116, label %141, label %117

117:                                              ; preds = %109
  %118 = load ptr, ptr %3, align 8
  %119 = getelementptr inbounds nuw %struct.RelationData, ptr %118, i32 0, i32 13
  %120 = load ptr, ptr %119, align 8
  %121 = getelementptr inbounds nuw %struct.FormData_pg_class, ptr %120, i32 0, i32 16
  %122 = load i8, ptr %121, align 1
  %123 = sext i8 %122 to i32
  %124 = icmp eq i32 %123, 83
  br i1 %124, label %141, label %125

125:                                              ; preds = %117
  %126 = load ptr, ptr %3, align 8
  %127 = getelementptr inbounds nuw %struct.RelationData, ptr %126, i32 0, i32 13
  %128 = load ptr, ptr %127, align 8
  %129 = getelementptr inbounds nuw %struct.FormData_pg_class, ptr %128, i32 0, i32 16
  %130 = load i8, ptr %129, align 1
  %131 = sext i8 %130 to i32
  %132 = icmp eq i32 %131, 116
  br i1 %132, label %141, label %133

133:                                              ; preds = %125
  %134 = load ptr, ptr %3, align 8
  %135 = getelementptr inbounds nuw %struct.RelationData, ptr %134, i32 0, i32 13
  %136 = load ptr, ptr %135, align 8
  %137 = getelementptr inbounds nuw %struct.FormData_pg_class, ptr %136, i32 0, i32 16
  %138 = load i8, ptr %137, align 1
  %139 = sext i8 %138 to i32
  %140 = icmp eq i32 %139, 109
  br i1 %140, label %141, label %143

141:                                              ; preds = %133, %125, %117, %109, %101
  %142 = load ptr, ptr %3, align 8
  call void @RelationDropStorage(ptr noundef %142)
  br label %143

143:                                              ; preds = %141, %133
  %144 = load ptr, ptr %3, align 8
  call void @pgstat_drop_relation(ptr noundef %144)
  %145 = load ptr, ptr %3, align 8
  call void @relation_close(ptr noundef %145, i32 noundef 0)
  %146 = load i32, ptr %2, align 4
  call void @RemoveSubscriptionRel(i32 noundef 0, i32 noundef %146)
  %147 = load i32, ptr %2, align 4
  call void @remove_on_commit_action(i32 noundef %147)
  %148 = load i32, ptr %2, align 4
  call void @RelationForgetRelation(i32 noundef %148)
  %149 = load i32, ptr %2, align 4
  call void @RelationRemoveInheritance(i32 noundef %149)
  %150 = load i32, ptr %2, align 4
  call void @RemoveStatistics(i32 noundef %150, i16 noundef signext 0)
  %151 = load i32, ptr %2, align 4
  call void @DeleteAttributeTuples(i32 noundef %151)
  %152 = load i32, ptr %2, align 4
  call void @DeleteRelationTuple(i32 noundef %152)
  %153 = load i32, ptr %5, align 4
  %154 = icmp ne i32 %153, 0
  br i1 %154, label %155, label %166

155:                                              ; preds = %143
  %156 = load i32, ptr %6, align 4
  %157 = icmp ne i32 %156, 0
  br i1 %157, label %158, label %164

158:                                              ; preds = %155
  %159 = load i32, ptr %2, align 4
  %160 = load i32, ptr %6, align 4
  %161 = icmp ne i32 %159, %160
  br i1 %161, label %162, label %164

162:                                              ; preds = %158
  %163 = load i32, ptr %6, align 4
  call void @CacheInvalidateRelcacheByRelid(i32 noundef %163)
  br label %164

164:                                              ; preds = %162, %158, %155
  %165 = load i32, ptr %5, align 4
  call void @CacheInvalidateRelcacheByRelid(i32 noundef %165)
  br label %166

166:                                              ; preds = %164, %143
  call void @llvm.lifetime.end.p0(i64 4, ptr %6) #10
  call void @llvm.lifetime.end.p0(i64 4, ptr %5) #10
  call void @llvm.lifetime.end.p0(i64 8, ptr %4) #10
  call void @llvm.lifetime.end.p0(i64 8, ptr %3) #10
  ret void
}