; Function Attrs: nounwind uwtable
define dso_local void @heap_drop_with_catalog(i32 noundef %0) local_unnamed_addr #0 {
  %2 = alloca %struct.ScanKeyData, align 8
  %3 = zext i32 %0 to i64
  %4 = tail call ptr @SearchSysCache1(i32 noundef 57, i64 noundef %3) #11
  %.not = icmp eq ptr %4, null
  br i1 %.not, label %5, label %8

5:                                                ; preds = %1
  %6 = tail call zeroext i1 @errstart_cold(i32 noundef 21, ptr noundef null) #10
  tail call void @llvm.assume(i1 %6)
  %7 = tail call i32 (ptr, ...) @errmsg_internal(ptr noundef nonnull @.str.21, i32 noundef %0) #11
  tail call void @errfinish(ptr noundef nonnull @.str.1, i32 noundef 1790, ptr noundef nonnull @__func__.heap_drop_with_catalog) #11
  unreachable

8:                                                ; preds = %1
  %9 = getelementptr i8, ptr %4, i64 16
  %.val = load ptr, ptr %9, align 8
  %10 = getelementptr inbounds nuw i8, ptr %.val, i64 22
  %11 = load i8, ptr %10, align 2
  %12 = zext i8 %11 to i64
  %13 = getelementptr inbounds nuw i8, ptr %.val, i64 %12
  %14 = getelementptr inbounds nuw i8, ptr %13, i64 127
  %15 = load i8, ptr %14, align 1, !range !10, !noundef !11
  %16 = trunc nuw i8 %15 to i1
  br i1 %16, label %17, label %22

17:                                               ; preds = %8
  %18 = tail call i32 @get_partition_parent(i32 noundef %0, i1 noundef zeroext true) #11
  tail call void @LockRelationOid(i32 noundef %18, i32 noundef 8) #11
  %19 = tail call i32 @get_default_partition_oid(i32 noundef %18) #11
  %.not53 = icmp eq i32 %19, 0
  br i1 %.not53, label %22, label %20

20:                                               ; preds = %17
  %.not54 = icmp eq i32 %0, %19
  br i1 %.not54, label %22, label %21

21:                                               ; preds = %20
  tail call void @LockRelationOid(i32 noundef %19, i32 noundef 8) #11
  br label %22

22:                                               ; preds = %17, %20, %21, %8
  %.048 = phi i32 [ %19, %21 ], [ %0, %20 ], [ 0, %17 ], [ 0, %8 ]
  %.0 = phi i32 [ %18, %21 ], [ %18, %20 ], [ %18, %17 ], [ 0, %8 ]
  tail call void @ReleaseSysCache(ptr noundef nonnull %4) #11
  %23 = tail call ptr @relation_open(i32 noundef %0, i32 noundef 8) #11
  tail call void @CheckTableNotInUse(ptr noundef %23, ptr noundef nonnull @.str.24) #11
  tail call void @CheckTableForSerializableConflictIn(ptr noundef %23) #11
  %24 = getelementptr inbounds nuw i8, ptr %23, i64 56
  %25 = load ptr, ptr %24, align 8
  %26 = getelementptr inbounds nuw i8, ptr %25, i64 115
  %27 = load i8, ptr %26, align 1
  %28 = icmp eq i8 %27, 102
  br i1 %28, label %29, label %37

29:                                               ; preds = %22
  %30 = tail call ptr @table_open(i32 noundef 3118, i32 noundef 3) #11
  %31 = tail call ptr @SearchSysCache1(i32 noundef 33, i64 noundef %3) #11
  %.not55 = icmp eq ptr %31, null
  br i1 %.not55, label %32, label %35

32:                                               ; preds = %29
  %33 = tail call zeroext i1 @errstart_cold(i32 noundef 21, ptr noundef null) #10
  tail call void @llvm.assume(i1 %33)
  %34 = tail call i32 (ptr, ...) @errmsg_internal(ptr noundef nonnull @.str.25, i32 noundef %0) #11
  tail call void @errfinish(ptr noundef nonnull @.str.1, i32 noundef 1844, ptr noundef nonnull @__func__.heap_drop_with_catalog) #11
  unreachable

35:                                               ; preds = %29
  %36 = getelementptr inbounds nuw i8, ptr %31, i64 4
  tail call void @CatalogTupleDelete(ptr noundef %30, ptr noundef nonnull %36) #11
  tail call void @ReleaseSysCache(ptr noundef nonnull %31) #11
  tail call void @table_close(ptr noundef %30, i32 noundef 3) #11
  %.pre = load ptr, ptr %24, align 8
  %.phi.trans.insert = getelementptr inbounds nuw i8, ptr %.pre, i64 115
  %.pre59 = load i8, ptr %.phi.trans.insert, align 1
  br label %37

37:                                               ; preds = %35, %22
  %38 = phi i8 [ %.pre59, %35 ], [ %27, %22 ]
  %39 = icmp eq i8 %38, 112
  br i1 %39, label %40, label %41

40:                                               ; preds = %37
  tail call void @RemovePartitionKeyByRelId(i32 noundef %0)
  br label %41

41:                                               ; preds = %40, %37
  %42 = icmp eq i32 %0, %.048
  br i1 %42, label %43, label %44

43:                                               ; preds = %41
  tail call void @update_default_partition_oid(i32 noundef %.0, i32 noundef 0) #11
  br label %44

44:                                               ; preds = %43, %41
  %45 = load ptr, ptr %24, align 8
  %46 = getelementptr inbounds nuw i8, ptr %45, i64 115
  %47 = load i8, ptr %46, align 1
  switch i8 %47, label %49 [
    i8 114, label %48
    i8 105, label %48
    i8 83, label %48
    i8 116, label %48
    i8 109, label %48
  ]

48:                                               ; preds = %44, %44, %44, %44, %44
  tail call void @RelationDropStorage(ptr noundef nonnull %23) #11
  br label %49

49:                                               ; preds = %44, %48
  tail call void @pgstat_drop_relation(ptr noundef nonnull %23) #11
  tail call void @relation_close(ptr noundef nonnull %23, i32 noundef 0) #11
  tail call void @RemoveSubscriptionRel(i32 noundef 0, i32 noundef %0) #11
  tail call void @remove_on_commit_action(i32 noundef %0) #11
  tail call void @RelationForgetRelation(i32 noundef %0) #11
  call void @llvm.lifetime.start.p0(i64 72, ptr nonnull %2) #11
  %50 = tail call ptr @table_open(i32 noundef 2611, i32 noundef 3) #11
  call void @ScanKeyInit(ptr noundef nonnull %2, i16 noundef signext 1, i16 noundef zeroext 3, i32 noundef 184, i64 noundef %3) #11
  %51 = call ptr @systable_beginscan(ptr noundef %50, i32 noundef 2680, i1 noundef zeroext true, ptr noundef null, i32 noundef 1, ptr noundef nonnull %2) #11
  %52 = call ptr @systable_getnext(ptr noundef %51) #11
  %.not6.i = icmp eq ptr %52, null
  br i1 %.not6.i, label %RelationRemoveInheritance.exit, label %.lr.ph.i

.lr.ph.i:                                         ; preds = %49, %.lr.ph.i
  %53 = phi ptr [ %55, %.lr.ph.i ], [ %52, %49 ]
  %54 = getelementptr inbounds nuw i8, ptr %53, i64 4
  call void @CatalogTupleDelete(ptr noundef %50, ptr noundef nonnull %54) #11
  %55 = call ptr @systable_getnext(ptr noundef %51) #11
  %.not.i = icmp eq ptr %55, null
  br i1 %.not.i, label %RelationRemoveInheritance.exit, label %.lr.ph.i, !llvm.loop !21

RelationRemoveInheritance.exit:                   ; preds = %.lr.ph.i, %49
  call void @systable_endscan(ptr noundef %51) #11
  call void @table_close(ptr noundef %50, i32 noundef 3) #11
  call void @llvm.lifetime.end.p0(i64 72, ptr nonnull %2) #11
  call void @RemoveStatistics(i32 noundef %0, i16 noundef signext 0)
  call void @DeleteAttributeTuples(i32 noundef %0)
  call void @DeleteRelationTuple(i32 noundef %0)
  %.not56 = icmp eq i32 %.0, 0
  br i1 %.not56, label %59, label %56

56:                                               ; preds = %RelationRemoveInheritance.exit
  %.not57 = icmp eq i32 %.048, 0
  %or.cond = or i1 %.not57, %42
  br i1 %or.cond, label %58, label %57

57:                                               ; preds = %56
  call void @CacheInvalidateRelcacheByRelid(i32 noundef %.048) #11
  br label %58

58:                                               ; preds = %57, %56
  call void @CacheInvalidateRelcacheByRelid(i32 noundef %.0) #11
  br label %59

59:                                               ; preds = %58, %RelationRemoveInheritance.exit
  ret void
}